; Function Attrs: nounwind uwtable
define internal noundef ptr @tuplegetter_descr_get(ptr noundef %0, ptr noundef readonly %1, ptr readnone captures(none) %2) #0 {
  %4 = getelementptr inbounds nuw i8, ptr %0, i64 16
  %5 = load i64, ptr %4, align 8, !tbaa !116
  %6 = icmp eq ptr %1, null
  br i1 %6, label %7, label %12

7:                                                ; preds = %3
  %8 = load i32, ptr %0, align 8, !tbaa !20
  %9 = icmp slt i32 %8, 0
  br i1 %9, label %_Py_NewRef.exit, label %10

10:                                               ; preds = %7
  %11 = add nuw i32 %8, 1
  store i32 %11, ptr %0, align 8, !tbaa !20
  br label %_Py_NewRef.exit

12:                                               ; preds = %3
  %13 = getelementptr i8, ptr %1, i64 8
  %.val16 = load ptr, ptr %13, align 8, !tbaa !22
  %14 = getelementptr i8, ptr %.val16, i64 168
  %.val17 = load i64, ptr %14, align 8, !tbaa !23
  %15 = and i64 %.val17, 67108864
  %.not = icmp eq i64 %15, 0
  br i1 %.not, label %16, label %28

16:                                               ; preds = %12
  %17 = icmp eq ptr %1, @_Py_NoneStruct
  br i1 %17, label %18, label %23

18:                                               ; preds = %16
  %19 = load i32, ptr %0, align 8, !tbaa !20
  %20 = icmp slt i32 %19, 0
  br i1 %20, label %_Py_NewRef.exit, label %21

21:                                               ; preds = %18
  %22 = add nuw i32 %19, 1
  store i32 %22, ptr %0, align 8, !tbaa !20
  br label %_Py_NewRef.exit

23:                                               ; preds = %16
  %24 = load ptr, ptr @PyExc_TypeError, align 8, !tbaa !21
  %25 = getelementptr inbounds nuw i8, ptr %.val16, i64 24
  %26 = load ptr, ptr %25, align 8, !tbaa !70
  %27 = tail call ptr (ptr, ptr, ...) @PyErr_Format(ptr noundef %24, ptr noundef nonnull @.str.79, i64 noundef %5, ptr noundef %26) #9
  br label %_Py_NewRef.exit

28:                                               ; preds = %12
  %29 = getelementptr i8, ptr %1, i64 16
  %.val = load i64, ptr %29, align 8, !tbaa !52
  %.not20 = icmp ult i64 %5, %.val
  br i1 %.not20, label %32, label %30

30:                                               ; preds = %28
  %31 = load ptr, ptr @PyExc_IndexError, align 8, !tbaa !21
  tail call void @PyErr_SetString(ptr noundef %31, ptr noundef nonnull @.str.80) #9
  br label %_Py_NewRef.exit

32:                                               ; preds = %28
  %33 = getelementptr inbounds nuw i8, ptr %1, i64 24
  %34 = getelementptr [1 x ptr], ptr %33, i64 0, i64 %5
  %35 = load ptr, ptr %34, align 8, !tbaa !21
  %36 = load i32, ptr %35, align 8, !tbaa !20
  %37 = icmp slt i32 %36, 0
  br i1 %37, label %_Py_NewRef.exit, label %38

38:                                               ; preds = %32
  %39 = add nuw i32 %36, 1
  store i32 %39, ptr %35, align 8, !tbaa !20
  br label %_Py_NewRef.exit

_Py_NewRef.exit:                                  ; preds = %38, %32, %21, %18, %10, %7, %30, %23
  %.0 = phi ptr [ null, %30 ], [ null, %23 ], [ %0, %7 ], [ %0, %10 ], [ %0, %18 ], [ %0, %21 ], [ %35, %32 ], [ %35, %38 ]
  ret ptr %.0
}